; Function Attrs: mustprogress nounwind uwtable
define dso_local { <2 x float>, <2 x float> } @_ZNK4pbrt20UniformInfiniteLight2LeERKNS_3RayERKNS_18SampledWavelengthsE(ptr noundef nonnull readonly align 8 captures(none) dereferenceable(180) %0, ptr noundef nonnull readnone align 8 captures(none) dereferenceable(40) %1, ptr noundef nonnull readonly align 4 captures(none) dereferenceable(32) %2) local_unnamed_addr #11 align 2 {
  %4 = alloca %"class.pbrt::SampledSpectrum", align 8
  %5 = alloca %"class.pbrt::SampledSpectrum", align 8
  %6 = getelementptr inbounds nuw i8, ptr %0, i64 160
  %7 = load float, ptr %6, align 8, !tbaa !465
  %8 = getelementptr inbounds nuw i8, ptr %0, i64 152
  %9 = load ptr, ptr %8, align 8, !tbaa !463
  call void @llvm.lifetime.start.p0(i64 16, ptr nonnull %5)
  call void @llvm.memset.p0.i64(ptr noundef nonnull align 8 dereferenceable(16) %5, i8 0, i64 16, i1 false), !tbaa !77
  %10 = getelementptr inbounds nuw i8, ptr %9, i64 32
  %11 = load i64, ptr %10, align 8
  %12 = getelementptr inbounds nuw i8, ptr %9, i64 16
  %13 = load ptr, ptr %12, align 8
  br label %14

14:                                               ; preds = %27, %3
  %indvars.iv.i = phi i64 [ 0, %3 ], [ %indvars.iv.next.i, %27 ]
  %15 = getelementptr inbounds nuw [4 x float], ptr %2, i64 0, i64 %indvars.iv.i
  %16 = load float, ptr %15, align 4, !tbaa !77
  %17 = tail call noundef i64 @lroundf(float noundef %16) #38, !tbaa !86
  %18 = load i32, ptr %9, align 8, !tbaa !72
  %19 = trunc i64 %17 to i32
  %20 = sub i32 %19, %18
  %21 = icmp slt i32 %20, 0
  br i1 %21, label %27, label %22

22:                                               ; preds = %14
  %23 = zext nneg i32 %20 to i64
  %.not.i = icmp ugt i64 %11, %23
  br i1 %.not.i, label %24, label %27

24:                                               ; preds = %22
  %25 = getelementptr inbounds nuw float, ptr %13, i64 %23
  %26 = load float, ptr %25, align 4, !tbaa !77
  br label %27

27:                                               ; preds = %24, %22, %14
  %.sink.i = phi float [ %26, %24 ], [ 0.000000e+00, %22 ], [ 0.000000e+00, %14 ]
  %28 = getelementptr inbounds nuw [4 x float], ptr %5, i64 0, i64 %indvars.iv.i
  store float %.sink.i, ptr %28, align 4, !tbaa !77
  %indvars.iv.next.i = add nuw nsw i64 %indvars.iv.i, 1
  %exitcond.not.i = icmp eq i64 %indvars.iv.next.i, 4
  br i1 %exitcond.not.i, label %_ZNK4pbrt22DenselySampledSpectrum6SampleERKNS_18SampledWavelengthsE.exit, label %14, !llvm.loop !111

_ZNK4pbrt22DenselySampledSpectrum6SampleERKNS_18SampledWavelengthsE.exit: ; preds = %27
  %.fca.0.load.i = load <2 x float>, ptr %5, align 8
  %.fca.1.gep.i = getelementptr inbounds nuw i8, ptr %5, i64 8
  %.fca.1.load.i = load <2 x float>, ptr %.fca.1.gep.i, align 8
  call void @llvm.lifetime.end.p0(i64 16, ptr nonnull %5)
  call void @llvm.lifetime.start.p0(i64 16, ptr nonnull %4)
  store <2 x float> %.fca.0.load.i, ptr %4, align 8
  %.sroa.4.0..sroa_idx = getelementptr inbounds nuw i8, ptr %4, i64 8
  store <2 x float> %.fca.1.load.i, ptr %.sroa.4.0..sroa_idx, align 8, !tbaa !16
  br label %29

29:                                               ; preds = %29, %_ZNK4pbrt22DenselySampledSpectrum6SampleERKNS_18SampledWavelengthsE.exit
  %indvars.iv.i.i = phi i64 [ 0, %_ZNK4pbrt22DenselySampledSpectrum6SampleERKNS_18SampledWavelengthsE.exit ], [ %indvars.iv.next.i.i, %29 ]
  %30 = getelementptr inbounds nuw [4 x float], ptr %4, i64 0, i64 %indvars.iv.i.i
  %31 = load float, ptr %30, align 4, !tbaa !77
  %32 = fmul float %7, %31
  store float %32, ptr %30, align 4, !tbaa !77
  %indvars.iv.next.i.i = add nuw nsw i64 %indvars.iv.i.i, 1
  %exitcond.not.i.i = icmp eq i64 %indvars.iv.next.i.i, 4
  br i1 %exitcond.not.i.i, label %_ZN4pbrtmlEfRKNS_15SampledSpectrumE.exit, label %29, !llvm.loop !112

_ZN4pbrtmlEfRKNS_15SampledSpectrumE.exit:         ; preds = %29
  %.fca.0.load.i.i = load <2 x float>, ptr %4, align 8
  %.fca.0.insert.i.i = insertvalue { <2 x float>, <2 x float> } poison, <2 x float> %.fca.0.load.i.i, 0
  %.fca.1.load.i.i = load <2 x float>, ptr %.sroa.4.0..sroa_idx, align 8
  %.fca.1.insert.i.i = insertvalue { <2 x float>, <2 x float> } %.fca.0.insert.i.i, <2 x float> %.fca.1.load.i.i, 1
  call void @llvm.lifetime.end.p0(i64 16, ptr nonnull %4)
  ret { <2 x float>, <2 x float> } %.fca.1.insert.i.i
}